target datalayout = "e-m:e-p270:32:32-p271:32:32-p272:64:64-i64:64-i128:128-f80:128-n8:16:32:64-S128"
target triple = "x86_64-pc-linux-gnu"

%class.State = type { [315 x i32], [315 x i16], i32, ptr, [2 x ptr] }

; Function Attrs: mustprogress nounwind uwtable
define linkonce_odr hidden noundef ptr @_ZNK4Node12as_LoadStoreEv(ptr noundef nonnull align 8 dereferenceable(52) %0) #1 comdat align 2 {
  %2 = alloca ptr, align 8
  store ptr %0, ptr %2, align 8
  %3 = load ptr, ptr %2, align 8
  ret ptr %3
}

; Function Attrs: mustprogress nounwind uwtable
define hidden void @_ZN5State18_sub_Op_GetAndAddIEPK4Node(ptr noundef nonnull align 8 dereferenceable(1920) %0, ptr noundef %1) #1 align 2 {
  %3 = alloca ptr, align 8
  %4 = alloca ptr, align 8
  %5 = alloca i32, align 4
  %6 = alloca i32, align 4
  %7 = alloca i32, align 4
  store ptr %0, ptr %3, align 8
  store ptr %1, ptr %4, align 8
  %8 = load ptr, ptr %3, align 8
  %9 = getelementptr inbounds %class.State, ptr %8, i32 0, i32 4
  %10 = getelementptr inbounds [2 x ptr], ptr %9, i64 0, i64 0
  %11 = load ptr, ptr %10, align 8
  %12 = icmp ne ptr %11, null
  br i1 %12, label %13, label %103

13:                                               ; preds = %2
  %14 = getelementptr inbounds %class.State, ptr %8, i32 0, i32 4
  %15 = getelementptr inbounds [2 x ptr], ptr %14, i64 0, i64 0
  %16 = load ptr, ptr %15, align 8
  %17 = getelementptr inbounds %class.State, ptr %16, i32 0, i32 1
  %18 = getelementptr inbounds [315 x i16], ptr %17, i64 0, i64 127
  %19 = load i16, ptr %18, align 2
  %20 = zext i16 %19 to i32
  %21 = and i32 %20, 1
  %22 = icmp ne i32 %21, 0
  br i1 %22, label %23, label %103

23:                                               ; preds = %13
  %24 = getelementptr inbounds %class.State, ptr %8, i32 0, i32 4
  %25 = getelementptr inbounds [2 x ptr], ptr %24, i64 0, i64 1
  %26 = load ptr, ptr %25, align 8
  %27 = icmp ne ptr %26, null
  br i1 %27, label %28, label %103

28:                                               ; preds = %23
  %29 = getelementptr inbounds %class.State, ptr %8, i32 0, i32 4
  %30 = getelementptr inbounds [2 x ptr], ptr %29, i64 0, i64 1
  %31 = load ptr, ptr %30, align 8
  %32 = getelementptr inbounds %class.State, ptr %31, i32 0, i32 1
  %33 = getelementptr inbounds [315 x i16], ptr %32, i64 0, i64 49
  %34 = load i16, ptr %33, align 2
  %35 = zext i16 %34 to i32
  %36 = and i32 %35, 1
  %37 = icmp ne i32 %36, 0
  br i1 %37, label %38, label %103

38:                                               ; preds = %28
  %39 = load ptr, ptr %4, align 8
  %40 = call noundef ptr @_ZNK4Node12as_LoadStoreEv(ptr noundef nonnull align 8 dereferenceable(52) %39)
  %41 = call noundef zeroext i1 @_ZNK13LoadStoreNode15result_not_usedEv(ptr noundef nonnull align 8 dereferenceable(73) %40)
  br i1 %41, label %103, label %42

42:                                               ; preds = %38
  %43 = getelementptr inbounds %class.State, ptr %8, i32 0, i32 4
  %44 = getelementptr inbounds [2 x ptr], ptr %43, i64 0, i64 0
  %45 = load ptr, ptr %44, align 8
  %46 = getelementptr inbounds %class.State, ptr %45, i32 0, i32 0
  %47 = getelementptr inbounds [315 x i32], ptr %46, i64 0, i64 127
  %48 = load i32, ptr %47, align 4
  %49 = getelementptr inbounds %class.State, ptr %8, i32 0, i32 4
  %50 = getelementptr inbounds [2 x ptr], ptr %49, i64 0, i64 1
  %51 = load ptr, ptr %50, align 8
  %52 = getelementptr inbounds %class.State, ptr %51, i32 0, i32 0
  %53 = getelementptr inbounds [315 x i32], ptr %52, i64 0, i64 49
  %54 = load i32, ptr %53, align 4
  %55 = add i32 %48, %54
  %56 = add i32 %55, 100
  store i32 %56, ptr %5, align 4
  %57 = load i32, ptr %5, align 4
  %58 = getelementptr inbounds %class.State, ptr %8, i32 0, i32 0
  %59 = getelementptr inbounds [315 x i32], ptr %58, i64 0, i64 49
  store i32 %57, ptr %59, align 4
  %60 = getelementptr inbounds %class.State, ptr %8, i32 0, i32 1
  %61 = getelementptr inbounds [315 x i16], ptr %60, i64 0, i64 49
  store i16 1535, ptr %61, align 2
  %62 = load i32, ptr %5, align 4
  %63 = add i32 %62, 100
  %64 = getelementptr inbounds %class.State, ptr %8, i32 0, i32 0
  %65 = getelementptr inbounds [315 x i32], ptr %64, i64 0, i64 105
  store i32 %63, ptr %65, align 4
  %66 = getelementptr inbounds %class.State, ptr %8, i32 0, i32 1
  %67 = getelementptr inbounds [315 x i16], ptr %66, i64 0, i64 105
  store i16 631, ptr %67, align 2
  %68 = load i32, ptr %5, align 4
  %69 = getelementptr inbounds %class.State, ptr %8, i32 0, i32 0
  %70 = getelementptr inbounds [315 x i32], ptr %69, i64 0, i64 50
  store i32 %68, ptr %70, align 8
  %71 = getelementptr inbounds %class.State, ptr %8, i32 0, i32 1
  %72 = getelementptr inbounds [315 x i16], ptr %71, i64 0, i64 50
  store i16 1535, ptr %72, align 4
  %73 = load i32, ptr %5, align 4
  %74 = getelementptr inbounds %class.State, ptr %8, i32 0, i32 0
  %75 = getelementptr inbounds [315 x i32], ptr %74, i64 0, i64 56
  store i32 %73, ptr %75, align 8
  %76 = getelementptr inbounds %class.State, ptr %8, i32 0, i32 1
  %77 = getelementptr inbounds [315 x i16], ptr %76, i64 0, i64 56
  store i16 1535, ptr %77, align 4
  %78 = load i32, ptr %5, align 4
  %79 = getelementptr inbounds %class.State, ptr %8, i32 0, i32 0
  %80 = getelementptr inbounds [315 x i32], ptr %79, i64 0, i64 51
  store i32 %78, ptr %80, align 4
  %81 = getelementptr inbounds %class.State, ptr %8, i32 0, i32 1
  %82 = getelementptr inbounds [315 x i16], ptr %81, i64 0, i64 51
  store i16 1535, ptr %82, align 2
  %83 = load i32, ptr %5, align 4
  %84 = getelementptr inbounds %class.State, ptr %8, i32 0, i32 0
  %85 = getelementptr inbounds [315 x i32], ptr %84, i64 0, i64 55
  store i32 %83, ptr %85, align 4
  %86 = getelementptr inbounds %class.State, ptr %8, i32 0, i32 1
  %87 = getelementptr inbounds [315 x i16], ptr %86, i64 0, i64 55
  store i16 1535, ptr %87, align 2
  %88 = load i32, ptr %5, align 4
  %89 = getelementptr inbounds %class.State, ptr %8, i32 0, i32 0
  %90 = getelementptr inbounds [315 x i32], ptr %89, i64 0, i64 52
  store i32 %88, ptr %90, align 8
  %91 = getelementptr inbounds %class.State, ptr %8, i32 0, i32 1
  %92 = getelementptr inbounds [315 x i16], ptr %91, i64 0, i64 52
  store i16 1535, ptr %92, align 4
  %93 = load i32, ptr %5, align 4
  %94 = getelementptr inbounds %class.State, ptr %8, i32 0, i32 0
  %95 = getelementptr inbounds [315 x i32], ptr %94, i64 0, i64 53
  store i32 %93, ptr %95, align 4
  %96 = getelementptr inbounds %class.State, ptr %8, i32 0, i32 1
  %97 = getelementptr inbounds [315 x i16], ptr %96, i64 0, i64 53
  store i16 1535, ptr %97, align 2
  %98 = load i32, ptr %5, align 4
  %99 = getelementptr inbounds %class.State, ptr %8, i32 0, i32 0
  %100 = getelementptr inbounds [315 x i32], ptr %99, i64 0, i64 54
  store i32 %98, ptr %100, align 8
  %101 = getelementptr inbounds %class.State, ptr %8, i32 0, i32 1
  %102 = getelementptr inbounds [315 x i16], ptr %101, i64 0, i64 54
  store i16 1535, ptr %102, align 4
  br label %103

103:                                              ; preds = %42, %38, %28, %23, %13, %2
  %104 = getelementptr inbounds %class.State, ptr %8, i32 0, i32 4
  %105 = getelementptr inbounds [2 x ptr], ptr %104, i64 0, i64 0
  %106 = load ptr, ptr %105, align 8
  %107 = icmp ne ptr %106, null
  br i1 %107, label %108, label %157

108:                                              ; preds = %103
  %109 = getelementptr inbounds %class.State, ptr %8, i32 0, i32 4
  %110 = getelementptr inbounds [2 x ptr], ptr %109, i64 0, i64 0
  %111 = load ptr, ptr %110, align 8
  %112 = getelementptr inbounds %class.State, ptr %111, i32 0, i32 1
  %113 = getelementptr inbounds [315 x i16], ptr %112, i64 0, i64 127
  %114 = load i16, ptr %113, align 2
  %115 = zext i16 %114 to i32
  %116 = and i32 %115, 1
  %117 = icmp ne i32 %116, 0
  br i1 %117, label %118, label %157

118:                                              ; preds = %108
  %119 = getelementptr inbounds %class.State, ptr %8, i32 0, i32 4
  %120 = getelementptr inbounds [2 x ptr], ptr %119, i64 0, i64 1
  %121 = load ptr, ptr %120, align 8
  %122 = icmp ne ptr %121, null
  br i1 %122, label %123, label %157

123:                                              ; preds = %118
  %124 = getelementptr inbounds %class.State, ptr %8, i32 0, i32 4
  %125 = getelementptr inbounds [2 x ptr], ptr %124, i64 0, i64 1
  %126 = load ptr, ptr %125, align 8
  %127 = getelementptr inbounds %class.State, ptr %126, i32 0, i32 1
  %128 = getelementptr inbounds [315 x i16], ptr %127, i64 0, i64 8
  %129 = load i16, ptr %128, align 4
  %130 = zext i16 %129 to i32
  %131 = and i32 %130, 1
  %132 = icmp ne i32 %131, 0
  br i1 %132, label %133, label %157

133:                                              ; preds = %123
  %134 = load ptr, ptr %4, align 8
  %135 = call noundef ptr @_ZNK4Node12as_LoadStoreEv(ptr noundef nonnull align 8 dereferenceable(52) %134)
  %136 = call noundef zeroext i1 @_ZNK13LoadStoreNode15result_not_usedEv(ptr noundef nonnull align 8 dereferenceable(73) %135)
  br i1 %136, label %137, label %157

137:                                              ; preds = %133
  %138 = getelementptr inbounds %class.State, ptr %8, i32 0, i32 4
  %139 = getelementptr inbounds [2 x ptr], ptr %138, i64 0, i64 0
  %140 = load ptr, ptr %139, align 8
  %141 = getelementptr inbounds %class.State, ptr %140, i32 0, i32 0
  %142 = getelementptr inbounds [315 x i32], ptr %141, i64 0, i64 127
  %143 = load i32, ptr %142, align 4
  %144 = getelementptr inbounds %class.State, ptr %8, i32 0, i32 4
  %145 = getelementptr inbounds [2 x ptr], ptr %144, i64 0, i64 1
  %146 = load ptr, ptr %145, align 8
  %147 = getelementptr inbounds %class.State, ptr %146, i32 0, i32 0
  %148 = getelementptr inbounds [315 x i32], ptr %147, i64 0, i64 8
  %149 = load i32, ptr %148, align 8
  %150 = add i32 %143, %149
  %151 = add i32 %150, 100
  store i32 %151, ptr %6, align 4
  %152 = load i32, ptr %6, align 4
  %153 = getelementptr inbounds %class.State, ptr %8, i32 0, i32 0
  %154 = getelementptr inbounds [315 x i32], ptr %153, i64 0, i64 0
  store i32 %152, ptr %154, align 8
  %155 = getelementptr inbounds %class.State, ptr %8, i32 0, i32 1
  %156 = getelementptr inbounds [315 x i16], ptr %155, i64 0, i64 0
  store i16 1533, ptr %156, align 4
  br label %157

157:                                              ; preds = %137, %133, %123, %118, %108, %103
  %158 = getelementptr inbounds %class.State, ptr %8, i32 0, i32 4
  %159 = getelementptr inbounds [2 x ptr], ptr %158, i64 0, i64 0
  %160 = load ptr, ptr %159, align 8
  %161 = icmp ne ptr %160, null
  br i1 %161, label %162, label %225

162:                                              ; preds = %157
  %163 = getelementptr inbounds %class.State, ptr %8, i32 0, i32 4
  %164 = getelementptr inbounds [2 x ptr], ptr %163, i64 0, i64 0
  %165 = load ptr, ptr %164, align 8
  %166 = getelementptr inbounds %class.State, ptr %165, i32 0, i32 1
  %167 = getelementptr inbounds [315 x i16], ptr %166, i64 0, i64 127
  %168 = load i16, ptr %167, align 2
  %169 = zext i16 %168 to i32
  %170 = and i32 %169, 1
  %171 = icmp ne i32 %170, 0
  br i1 %171, label %172, label %225

172:                                              ; preds = %162
  %173 = getelementptr inbounds %class.State, ptr %8, i32 0, i32 4
  %174 = getelementptr inbounds [2 x ptr], ptr %173, i64 0, i64 1
  %175 = load ptr, ptr %174, align 8
  %176 = icmp ne ptr %175, null
  br i1 %176, label %177, label %225

177:                                              ; preds = %172
  %178 = getelementptr inbounds %class.State, ptr %8, i32 0, i32 4
  %179 = getelementptr inbounds [2 x ptr], ptr %178, i64 0, i64 1
  %180 = load ptr, ptr %179, align 8
  %181 = getelementptr inbounds %class.State, ptr %180, i32 0, i32 1
  %182 = getelementptr inbounds [315 x i16], ptr %181, i64 0, i64 49
  %183 = load i16, ptr %182, align 2
  %184 = zext i16 %183 to i32
  %185 = and i32 %184, 1
  %186 = icmp ne i32 %185, 0
  br i1 %186, label %187, label %225

187:                                              ; preds = %177
  %188 = load ptr, ptr %4, align 8
  %189 = call noundef ptr @_ZNK4Node12as_LoadStoreEv(ptr noundef nonnull align 8 dereferenceable(52) %188)
  %190 = call noundef zeroext i1 @_ZNK13LoadStoreNode15result_not_usedEv(ptr noundef nonnull align 8 dereferenceable(73) %189)
  br i1 %190, label %191, label %225

191:                                              ; preds = %187
  %192 = getelementptr inbounds %class.State, ptr %8, i32 0, i32 4
  %193 = getelementptr inbounds [2 x ptr], ptr %192, i64 0, i64 0
  %194 = load ptr, ptr %193, align 8
  %195 = getelementptr inbounds %class.State, ptr %194, i32 0, i32 0
  %196 = getelementptr inbounds [315 x i32], ptr %195, i64 0, i64 127
  %197 = load i32, ptr %196, align 4
  %198 = getelementptr inbounds %class.State, ptr %8, i32 0, i32 4
  %199 = getelementptr inbounds [2 x ptr], ptr %198, i64 0, i64 1
  %200 = load ptr, ptr %199, align 8
  %201 = getelementptr inbounds %class.State, ptr %200, i32 0, i32 0
  %202 = getelementptr inbounds [315 x i32], ptr %201, i64 0, i64 49
  %203 = load i32, ptr %202, align 4
  %204 = add i32 %197, %203
  %205 = add i32 %204, 100
  store i32 %205, ptr %7, align 4
  %206 = getelementptr inbounds %class.State, ptr %8, i32 0, i32 1
  %207 = getelementptr inbounds [315 x i16], ptr %206, i64 0, i64 0
  %208 = load i16, ptr %207, align 4
  %209 = zext i16 %208 to i32
  %210 = and i32 %209, 1
  %211 = icmp eq i32 %210, 0
  br i1 %211, label %218, label %212

212:                                              ; preds = %191
  %213 = getelementptr inbounds %class.State, ptr %8, i32 0, i32 0
  %214 = getelementptr inbounds [315 x i32], ptr %213, i64 0, i64 0
  %215 = load i32, ptr %214, align 8
  %216 = load i32, ptr %7, align 4
  %217 = icmp ugt i32 %215, %216
  br i1 %217, label %218, label %224

218:                                              ; preds = %212, %191
  %219 = load i32, ptr %7, align 4
  %220 = getelementptr inbounds %class.State, ptr %8, i32 0, i32 0
  %221 = getelementptr inbounds [315 x i32], ptr %220, i64 0, i64 0
  store i32 %219, ptr %221, align 8
  %222 = getelementptr inbounds %class.State, ptr %8, i32 0, i32 1
  %223 = getelementptr inbounds [315 x i16], ptr %222, i64 0, i64 0
  store i16 1531, ptr %223, align 4
  br label %224

224:                                              ; preds = %218, %212
  br label %225

225:                                              ; preds = %224, %187, %177, %172, %162, %157
  ret void
}