; Function Attrs: mustprogress nounwind uwtable
define hidden void @_ZN5State18_sub_Op_GetAndAddIEPK4Node(ptr nocapture noundef nonnull align 8 dereferenceable(1920) %0, ptr noundef %1) local_unnamed_addr #2 align 2 {
  %3 = getelementptr inbounds i8, ptr %0, i64 1904
  %4 = load ptr, ptr %3, align 8
  %.not = icmp eq ptr %4, null
  br i1 %.not, label %.thread35, label %5

5:                                                ; preds = %2
  %6 = getelementptr inbounds i8, ptr %4, i64 1514
  %7 = load i16, ptr %6, align 2
  %8 = and i16 %7, 1
  %.not20 = icmp eq i16 %8, 0
  br i1 %.not20, label %.thread, label %9

9:                                                ; preds = %5
  %10 = getelementptr inbounds i8, ptr %0, i64 1912
  %11 = load ptr, ptr %10, align 8
  %.not21 = icmp eq ptr %11, null
  br i1 %.not21, label %.thread, label %12

12:                                               ; preds = %9
  %13 = getelementptr inbounds i8, ptr %11, i64 1358
  %14 = load i16, ptr %13, align 2
  %15 = and i16 %14, 1
  %.not22 = icmp eq i16 %15, 0
  br i1 %.not22, label %.thread, label %16

16:                                               ; preds = %12
  %17 = tail call noundef zeroext i1 @_ZNK13LoadStoreNode15result_not_usedEv(ptr noundef nonnull align 8 dereferenceable(73) %1) #9
  %.pr.pre = load ptr, ptr %3, align 8
  br i1 %17, label %34, label %18

18:                                               ; preds = %16
  %19 = getelementptr inbounds i8, ptr %.pr.pre, i64 508
  %20 = load i32, ptr %19, align 4
  %21 = load ptr, ptr %10, align 8
  %22 = getelementptr inbounds i8, ptr %21, i64 196
  %23 = load i32, ptr %22, align 4
  %24 = add i32 %23, %20
  %25 = add i32 %24, 100
  %26 = getelementptr inbounds i8, ptr %0, i64 196
  %27 = getelementptr inbounds i8, ptr %0, i64 1358
  %28 = add i32 %24, 200
  %29 = getelementptr inbounds i8, ptr %0, i64 420
  store i32 %28, ptr %29, align 4
  %30 = getelementptr inbounds i8, ptr %0, i64 1470
  store i16 631, ptr %30, align 2
  %31 = insertelement <4 x i32> poison, i32 %25, i64 0
  %32 = shufflevector <4 x i32> %31, <4 x i32> poison, <4 x i32> zeroinitializer
  store <4 x i32> %32, ptr %26, align 4
  %33 = getelementptr inbounds i8, ptr %0, i64 212
  store <4 x i32> %32, ptr %33, align 4
  store <8 x i16> <i16 1535, i16 1535, i16 1535, i16 1535, i16 1535, i16 1535, i16 1535, i16 1535>, ptr %27, align 2
  br label %.thread

34:                                               ; preds = %16
  %.not23 = icmp eq ptr %.pr.pre, null
  br i1 %.not23, label %.thread35, label %.thread

.thread:                                          ; preds = %5, %9, %12, %18, %34
  %.pr41 = phi ptr [ %.pr.pre, %34 ], [ %4, %5 ], [ %4, %9 ], [ %4, %12 ], [ %.pr.pre, %18 ]
  %35 = getelementptr inbounds i8, ptr %.pr41, i64 1514
  %36 = load i16, ptr %35, align 2
  %37 = and i16 %36, 1
  %.not24 = icmp eq i16 %37, 0
  br i1 %.not24, label %.thread43, label %38

38:                                               ; preds = %.thread
  %39 = getelementptr inbounds i8, ptr %0, i64 1912
  %40 = load ptr, ptr %39, align 8
  %.not25 = icmp eq ptr %40, null
  br i1 %.not25, label %.thread43, label %41

41:                                               ; preds = %38
  %42 = getelementptr inbounds i8, ptr %40, i64 1276
  %43 = load i16, ptr %42, align 4
  %44 = and i16 %43, 1
  %.not26 = icmp eq i16 %44, 0
  br i1 %.not26, label %.thread43, label %45

45:                                               ; preds = %41
  %46 = tail call noundef zeroext i1 @_ZNK13LoadStoreNode15result_not_usedEv(ptr noundef nonnull align 8 dereferenceable(73) %1) #9
  %.pr34.pre = load ptr, ptr %3, align 8
  br i1 %46, label %47, label %56

47:                                               ; preds = %45
  %48 = getelementptr inbounds i8, ptr %.pr34.pre, i64 508
  %49 = load i32, ptr %48, align 4
  %50 = load ptr, ptr %39, align 8
  %51 = getelementptr inbounds i8, ptr %50, i64 32
  %52 = load i32, ptr %51, align 8
  %53 = add i32 %49, 100
  %54 = add i32 %53, %52
  store i32 %54, ptr %0, align 8
  %55 = getelementptr inbounds i8, ptr %0, i64 1260
  store i16 1533, ptr %55, align 4
  br label %.thread43

56:                                               ; preds = %45
  %.not27 = icmp eq ptr %.pr34.pre, null
  br i1 %.not27, label %.thread35, label %.thread43

.thread43:                                        ; preds = %.thread, %38, %41, %47, %56
  %.pr3446 = phi ptr [ %.pr34.pre, %56 ], [ %.pr41, %.thread ], [ %.pr41, %38 ], [ %.pr41, %41 ], [ %.pr34.pre, %47 ]
  %57 = getelementptr inbounds i8, ptr %.pr3446, i64 1514
  %58 = load i16, ptr %57, align 2
  %59 = and i16 %58, 1
  %.not28 = icmp eq i16 %59, 0
  br i1 %.not28, label %.thread35, label %60

60:                                               ; preds = %.thread43
  %61 = getelementptr inbounds i8, ptr %0, i64 1912
  %62 = load ptr, ptr %61, align 8
  %.not29 = icmp eq ptr %62, null
  br i1 %.not29, label %.thread35, label %63

63:                                               ; preds = %60
  %64 = getelementptr inbounds i8, ptr %62, i64 1358
  %65 = load i16, ptr %64, align 2
  %66 = and i16 %65, 1
  %.not30 = icmp eq i16 %66, 0
  br i1 %.not30, label %.thread35, label %67

67:                                               ; preds = %63
  %68 = tail call noundef zeroext i1 @_ZNK13LoadStoreNode15result_not_usedEv(ptr noundef nonnull align 8 dereferenceable(73) %1) #9
  br i1 %68, label %69, label %.thread35

69:                                               ; preds = %67
  %70 = load ptr, ptr %3, align 8
  %71 = getelementptr inbounds i8, ptr %70, i64 508
  %72 = load i32, ptr %71, align 4
  %73 = load ptr, ptr %61, align 8
  %74 = getelementptr inbounds i8, ptr %73, i64 196
  %75 = load i32, ptr %74, align 4
  %76 = add i32 %72, 100
  %77 = add i32 %76, %75
  %78 = getelementptr inbounds i8, ptr %0, i64 1260
  %79 = load i16, ptr %78, align 4
  %80 = and i16 %79, 1
  %81 = icmp eq i16 %80, 0
  %82 = load i32, ptr %0, align 8
  %83 = icmp ugt i32 %82, %77
  %or.cond = select i1 %81, i1 true, i1 %83
  br i1 %or.cond, label %84, label %.thread35

84:                                               ; preds = %69
  store i32 %77, ptr %0, align 8
  store i16 1531, ptr %78, align 4
  br label %.thread35

.thread35:                                        ; preds = %2, %34, %69, %84, %67, %63, %60, %.thread43, %56
  ret void
}